target datalayout = "e-m:e-p270:32:32-p271:32:32-p272:64:64-i64:64-i128:128-f80:128-n8:16:32:64-S128"
target triple = "x86_64-pc-linux-gnu"

%"class.llvm::APFloat" = type { [8 x i8], %"union.llvm::APFloat::Storage" }
%"union.llvm::APFloat::Storage" = type { %"class.llvm::detail::DoubleAPFloat", [8 x i8] }
%"class.llvm::detail::DoubleAPFloat" = type { ptr, %"class.std::unique_ptr.1213" }
%"class.std::unique_ptr.1213" = type { %"struct.std::__uniq_ptr_data.1214" }
%"struct.std::__uniq_ptr_data.1214" = type { %"class.std::__uniq_ptr_impl.1215" }
%"class.std::__uniq_ptr_impl.1215" = type { %"class.std::tuple.1216" }
%"class.std::tuple.1216" = type { %"struct.std::_Tuple_impl.1217" }
%"struct.std::_Tuple_impl.1217" = type { %"struct.std::_Head_base.1220" }
%"struct.std::_Head_base.1220" = type { ptr }

; Function Attrs: mustprogress nounwind uwtable
define linkonce_odr hidden void @_ZN4llvm7APFloat7StorageD2Ev(ptr noundef nonnull align 8 dereferenceable(24) %0) unnamed_addr #0 comdat align 2 {
  %2 = alloca ptr, align 8
  store ptr %0, ptr %2, align 8
  %3 = load ptr, ptr %2, align 8
  %4 = load ptr, ptr %3, align 8
  %5 = call noundef zeroext i1 @_ZN4llvm7APFloat10usesLayoutINS_6detail9IEEEFloatEEEbRKNS_12fltSemanticsE(ptr noundef nonnull align 1 %4)
  br i1 %5, label %6, label %7

6:                                                ; preds = %1
  call void @_ZN4llvm6detail9IEEEFloatD1Ev(ptr noundef nonnull align 8 dereferenceable(24) %3) #15
  br label %12

7:                                                ; preds = %1
  %8 = load ptr, ptr %3, align 8
  %9 = call noundef zeroext i1 @_ZN4llvm7APFloat10usesLayoutINS_6detail13DoubleAPFloatEEEbRKNS_12fltSemanticsE(ptr noundef nonnull align 1 %8)
  br i1 %9, label %10, label %11

10:                                               ; preds = %7
  call void @_ZN4llvm6detail13DoubleAPFloatD2Ev(ptr noundef nonnull align 8 dereferenceable(16) %3) #15
  br label %12

11:                                               ; preds = %7
  unreachable

12:                                               ; preds = %10, %6
  ret void
}

; Function Attrs: mustprogress nounwind uwtable
define linkonce_odr hidden noundef zeroext i1 @_ZN4llvm7APFloat10usesLayoutINS_6detail13DoubleAPFloatEEEbRKNS_12fltSemanticsE(ptr noundef nonnull align 1 %0) #0 comdat align 2 {
  %2 = alloca ptr, align 8
  store ptr %0, ptr %2, align 8
  %3 = load ptr, ptr %2, align 8
  %4 = call noundef nonnull align 1 ptr @_ZN4llvm11APFloatBase15PPCDoubleDoubleEv() #16
  %5 = icmp eq ptr %3, %4
  ret i1 %5
}

; Function Attrs: mustprogress nounwind uwtable
define linkonce_odr hidden noundef zeroext i1 @_ZN4llvm7APFloat10usesLayoutINS_6detail9IEEEFloatEEEbRKNS_12fltSemanticsE(ptr noundef nonnull align 1 %0) #0 comdat align 2 {
  %2 = alloca ptr, align 8
  store ptr %0, ptr %2, align 8
  %3 = load ptr, ptr %2, align 8
  %4 = call noundef nonnull align 1 ptr @_ZN4llvm11APFloatBase15PPCDoubleDoubleEv() #16
  %5 = icmp ne ptr %3, %4
  ret i1 %5
}

; Function Attrs: mustprogress nounwind uwtable
define linkonce_odr hidden noundef nonnull align 1 ptr @_ZNK4llvm7APFloat12getSemanticsEv(ptr noundef nonnull align 8 dereferenceable(32) %0) #0 comdat align 2 {
  %2 = alloca ptr, align 8
  store ptr %0, ptr %2, align 8
  %3 = load ptr, ptr %2, align 8
  %4 = getelementptr inbounds nuw %"class.llvm::APFloat", ptr %3, i32 0, i32 1
  %5 = load ptr, ptr %4, align 8
  ret ptr %5
}

; Function Attrs: mustprogress nounwind uwtable
define linkonce_odr hidden void @_ZN4llvm7APFloat7StorageC2ERKS1_(ptr noundef nonnull align 8 dereferenceable(24) %0, ptr noundef nonnull align 8 dereferenceable(24) %1) unnamed_addr #0 comdat align 2 {
  %3 = alloca ptr, align 8
  %4 = alloca ptr, align 8
  store ptr %0, ptr %3, align 8
  store ptr %1, ptr %4, align 8
  %5 = load ptr, ptr %3, align 8
  %6 = load ptr, ptr %4, align 8
  %7 = load ptr, ptr %6, align 8
  %8 = call noundef zeroext i1 @_ZN4llvm7APFloat10usesLayoutINS_6detail9IEEEFloatEEEbRKNS_12fltSemanticsE(ptr noundef nonnull align 1 %7)
  br i1 %8, label %9, label %11

9:                                                ; preds = %2
  %10 = load ptr, ptr %4, align 8
  call void @_ZN4llvm6detail9IEEEFloatC1ERKS1_(ptr noundef nonnull align 8 dereferenceable(24) %5, ptr noundef nonnull align 8 dereferenceable(24) %10)
  br label %18

11:                                               ; preds = %2
  %12 = load ptr, ptr %4, align 8
  %13 = load ptr, ptr %12, align 8
  %14 = call noundef zeroext i1 @_ZN4llvm7APFloat10usesLayoutINS_6detail13DoubleAPFloatEEEbRKNS_12fltSemanticsE(ptr noundef nonnull align 1 %13)
  br i1 %14, label %15, label %17

15:                                               ; preds = %11
  %16 = load ptr, ptr %4, align 8
  call void @_ZN4llvm6detail13DoubleAPFloatC1ERKS1_(ptr noundef nonnull align 8 dereferenceable(16) %5, ptr noundef nonnull align 8 dereferenceable(16) %16)
  br label %18

17:                                               ; preds = %11
  unreachable

18:                                               ; preds = %15, %9
  ret void
}

; Function Attrs: mustprogress nounwind uwtable
define linkonce_odr hidden void @_ZN4llvm7APFloatD2Ev(ptr noundef nonnull align 8 dereferenceable(32) %0) unnamed_addr #0 comdat align 2 {
  %2 = alloca ptr, align 8
  store ptr %0, ptr %2, align 8
  %3 = load ptr, ptr %2, align 8
  %4 = getelementptr inbounds nuw %"class.llvm::APFloat", ptr %3, i32 0, i32 1
  call void @_ZN4llvm7APFloat7StorageD2Ev(ptr noundef nonnull align 8 dereferenceable(24) %4) #15
  ret void
}

; Function Attrs: mustprogress nounwind uwtable
define linkonce_odr hidden noundef zeroext i1 @_ZNK4llvm7APFloat14bitwiseIsEqualERKS0_(ptr noundef nonnull align 8 dereferenceable(32) %0, ptr noundef nonnull align 8 dereferenceable(32) %1) #0 comdat align 2 {
  %3 = alloca i1, align 1
  %4 = alloca ptr, align 8
  %5 = alloca ptr, align 8
  store ptr %0, ptr %4, align 8
  store ptr %1, ptr %5, align 8
  %6 = load ptr, ptr %4, align 8
  %7 = call noundef nonnull align 1 ptr @_ZNK4llvm7APFloat12getSemanticsEv(ptr noundef nonnull align 8 dereferenceable(32) %6)
  %8 = load ptr, ptr %5, align 8
  %9 = call noundef nonnull align 1 ptr @_ZNK4llvm7APFloat12getSemanticsEv(ptr noundef nonnull align 8 dereferenceable(32) %8)
  %10 = icmp ne ptr %7, %9
  br i1 %10, label %11, label %12

11:                                               ; preds = %2
  store i1 false, ptr %3, align 1
  br label %29

12:                                               ; preds = %2
  %13 = call noundef nonnull align 1 ptr @_ZNK4llvm7APFloat12getSemanticsEv(ptr noundef nonnull align 8 dereferenceable(32) %6)
  %14 = call noundef zeroext i1 @_ZN4llvm7APFloat10usesLayoutINS_6detail9IEEEFloatEEEbRKNS_12fltSemanticsE(ptr noundef nonnull align 1 %13)
  br i1 %14, label %15, label %20

15:                                               ; preds = %12
  %16 = getelementptr inbounds nuw %"class.llvm::APFloat", ptr %6, i32 0, i32 1
  %17 = load ptr, ptr %5, align 8
  %18 = getelementptr inbounds nuw %"class.llvm::APFloat", ptr %17, i32 0, i32 1
  %19 = call noundef zeroext i1 @_ZNK4llvm6detail9IEEEFloat14bitwiseIsEqualERKS1_(ptr noundef nonnull align 8 dereferenceable(24) %16, ptr noundef nonnull align 8 dereferenceable(24) %18)
  store i1 %19, ptr %3, align 1
  br label %29

20:                                               ; preds = %12
  %21 = call noundef nonnull align 1 ptr @_ZNK4llvm7APFloat12getSemanticsEv(ptr noundef nonnull align 8 dereferenceable(32) %6)
  %22 = call noundef zeroext i1 @_ZN4llvm7APFloat10usesLayoutINS_6detail13DoubleAPFloatEEEbRKNS_12fltSemanticsE(ptr noundef nonnull align 1 %21)
  br i1 %22, label %23, label %28

23:                                               ; preds = %20
  %24 = getelementptr inbounds nuw %"class.llvm::APFloat", ptr %6, i32 0, i32 1
  %25 = load ptr, ptr %5, align 8
  %26 = getelementptr inbounds nuw %"class.llvm::APFloat", ptr %25, i32 0, i32 1
  %27 = call noundef zeroext i1 @_ZNK4llvm6detail13DoubleAPFloat14bitwiseIsEqualERKS1_(ptr noundef nonnull align 8 dereferenceable(16) %24, ptr noundef nonnull align 8 dereferenceable(16) %26)
  store i1 %27, ptr %3, align 1
  br label %29

28:                                               ; preds = %20
  unreachable

29:                                               ; preds = %23, %15, %11
  %30 = load i1, ptr %3, align 1
  ret i1 %30
}

; Function Attrs: mustprogress nounwind uwtable
define linkonce_odr hidden void @_ZN4llvm7APFloatC2ERKS0_(ptr noundef nonnull align 8 dereferenceable(32) %0, ptr noundef nonnull align 8 dereferenceable(32) %1) unnamed_addr #0 comdat align 2 {
  %3 = alloca ptr, align 8
  %4 = alloca ptr, align 8
  store ptr %0, ptr %3, align 8
  store ptr %1, ptr %4, align 8
  %5 = load ptr, ptr %3, align 8
  %6 = getelementptr inbounds nuw %"class.llvm::APFloat", ptr %5, i32 0, i32 1
  %7 = load ptr, ptr %4, align 8
  %8 = getelementptr inbounds nuw %"class.llvm::APFloat", ptr %7, i32 0, i32 1
  call void @_ZN4llvm7APFloat7StorageC2ERKS1_(ptr noundef nonnull align 8 dereferenceable(24) %6, ptr noundef nonnull align 8 dereferenceable(24) %8)
  ret void
}

; Function Attrs: mustprogress nounwind uwtable
define internal noundef zeroext i1 @_ZL20IsSameFloatAfterCastRKN4llvm7APFloatERKNS_12fltSemanticsES5_(ptr noundef nonnull align 8 dereferenceable(32) %0, ptr noundef nonnull align 1 %1, ptr noundef nonnull align 1 %2) #0 {
  %4 = alloca ptr, align 8
  %5 = alloca ptr, align 8
  %6 = alloca ptr, align 8
  %7 = alloca %"class.llvm::APFloat", align 8
  %8 = alloca i8, align 1
  store ptr %0, ptr %4, align 8
  store ptr %1, ptr %5, align 8
  store ptr %2, ptr %6, align 8
  %9 = load ptr, ptr %4, align 8
  call void @_ZN4llvm7APFloatC2ERKS0_(ptr noundef nonnull align 8 dereferenceable(32) %7, ptr noundef nonnull align 8 dereferenceable(32) %9)
  %10 = load ptr, ptr %5, align 8
  %11 = call noundef i32 @_ZN4llvm7APFloat7convertERKNS_12fltSemanticsENS_12RoundingModeEPb(ptr noundef nonnull align 8 dereferenceable(32) %7, ptr noundef nonnull align 1 %10, i8 noundef signext 1, ptr noundef %8)
  %12 = load ptr, ptr %6, align 8
  %13 = call noundef i32 @_ZN4llvm7APFloat7convertERKNS_12fltSemanticsENS_12RoundingModeEPb(ptr noundef nonnull align 8 dereferenceable(32) %7, ptr noundef nonnull align 1 %12, i8 noundef signext 1, ptr noundef %8)
  %14 = load ptr, ptr %4, align 8
  %15 = call noundef zeroext i1 @_ZNK4llvm7APFloat14bitwiseIsEqualERKS0_(ptr noundef nonnull align 8 dereferenceable(32) %7, ptr noundef nonnull align 8 dereferenceable(32) %14)
  call void @_ZN4llvm7APFloatD2Ev(ptr noundef nonnull align 8 dereferenceable(32) %7) #15
  ret i1 %15
}