; Function Attrs: mustprogress nounwind uwtable
define internal fastcc noundef zeroext i1 @_ZL20IsSameFloatAfterCastRKN4llvm7APFloatERKNS_12fltSemanticsES5_(ptr noundef nonnull align 8 dereferenceable(32) %0, ptr noundef nonnull align 1 %1, ptr noundef nonnull align 1 %2) unnamed_addr #0 {
  %4 = alloca %"class.llvm::APFloat", align 8
  %5 = alloca i8, align 1
  %6 = getelementptr inbounds nuw i8, ptr %4, i64 8
  %7 = getelementptr inbounds nuw i8, ptr %0, i64 8
  %8 = load ptr, ptr %7, align 8
  %9 = tail call noundef nonnull align 1 ptr @_ZN4llvm11APFloatBase15PPCDoubleDoubleEv() #28
  %.not.i.i = icmp eq ptr %8, %9
  br i1 %.not.i.i, label %11, label %10

10:                                               ; preds = %3
  call void @_ZN4llvm6detail9IEEEFloatC1ERKS1_(ptr noundef nonnull align 8 dereferenceable(24) %6, ptr noundef nonnull align 8 dereferenceable(24) %7) #25
  br label %_ZN4llvm7APFloatC2ERKS0_.exit

11:                                               ; preds = %3
  call void @_ZN4llvm6detail13DoubleAPFloatC1ERKS1_(ptr noundef nonnull align 8 dereferenceable(16) %6, ptr noundef nonnull align 8 dereferenceable(16) %7) #25
  br label %_ZN4llvm7APFloatC2ERKS0_.exit

_ZN4llvm7APFloatC2ERKS0_.exit:                    ; preds = %10, %11
  %12 = call noundef i32 @_ZN4llvm7APFloat7convertERKNS_12fltSemanticsENS_12RoundingModeEPb(ptr noundef nonnull align 8 dereferenceable(32) %4, ptr noundef nonnull align 1 %1, i8 noundef signext 1, ptr noundef nonnull %5) #25
  %13 = call noundef i32 @_ZN4llvm7APFloat7convertERKNS_12fltSemanticsENS_12RoundingModeEPb(ptr noundef nonnull align 8 dereferenceable(32) %4, ptr noundef nonnull align 1 %2, i8 noundef signext 1, ptr noundef nonnull %5) #25
  %14 = load ptr, ptr %6, align 8
  %15 = load ptr, ptr %7, align 8
  %.not.i = icmp eq ptr %14, %15
  br i1 %.not.i, label %16, label %_ZNK4llvm7APFloat14bitwiseIsEqualERKS0_.exit

16:                                               ; preds = %_ZN4llvm7APFloatC2ERKS0_.exit
  %.not5.i = icmp eq ptr %14, %9
  br i1 %.not5.i, label %19, label %17

17:                                               ; preds = %16
  %18 = call noundef zeroext i1 @_ZNK4llvm6detail9IEEEFloat14bitwiseIsEqualERKS1_(ptr noundef nonnull align 8 dereferenceable(24) %6, ptr noundef nonnull align 8 dereferenceable(24) %7) #25
  br label %_ZNK4llvm7APFloat14bitwiseIsEqualERKS0_.exit

19:                                               ; preds = %16
  %20 = call noundef zeroext i1 @_ZNK4llvm6detail13DoubleAPFloat14bitwiseIsEqualERKS1_(ptr noundef nonnull align 8 dereferenceable(16) %6, ptr noundef nonnull align 8 dereferenceable(16) %7) #25
  br label %_ZNK4llvm7APFloat14bitwiseIsEqualERKS0_.exit

_ZNK4llvm7APFloat14bitwiseIsEqualERKS0_.exit:     ; preds = %_ZN4llvm7APFloatC2ERKS0_.exit, %17, %19
  %.0.i = phi i1 [ %18, %17 ], [ %20, %19 ], [ false, %_ZN4llvm7APFloatC2ERKS0_.exit ]
  %21 = load ptr, ptr %6, align 8
  %.not.i4 = icmp eq ptr %21, %9
  br i1 %.not.i4, label %23, label %22

22:                                               ; preds = %_ZNK4llvm7APFloat14bitwiseIsEqualERKS0_.exit
  call void @_ZN4llvm6detail9IEEEFloatD1Ev(ptr noundef nonnull align 8 dereferenceable(24) %6) #25
  br label %_ZN4llvm7APFloatD2Ev.exit

23:                                               ; preds = %_ZNK4llvm7APFloat14bitwiseIsEqualERKS0_.exit
  call void @_ZN4llvm6detail13DoubleAPFloatD2Ev(ptr noundef nonnull align 8 dereferenceable(16) %6) #25
  br label %_ZN4llvm7APFloatD2Ev.exit

_ZN4llvm7APFloatD2Ev.exit:                        ; preds = %22, %23
  ret i1 %.0.i
}